target datalayout = "e-m:e-p270:32:32-p271:32:32-p272:64:64-i64:64-i128:128-f80:128-n8:16:32:64-S128"
target triple = "x86_64-pc-linux-gnu"

@.str.3 = private unnamed_addr constant [37 x i8] c"../openssl/test/pkey_meth_kdf_test.c\00", align 1
@.str.5 = private unnamed_addr constant [21 x i8] c"EVP_PKEY_derive_init\00", align 1
@.str.13 = private unnamed_addr constant [16 x i8] c"EVP_PKEY_derive\00", align 1
@.str.14 = private unnamed_addr constant [4 x i8] c"out\00", align 1
@.str.15 = private unnamed_addr constant [9 x i8] c"expected\00", align 1
@.str.25 = private unnamed_addr constant [16 x i8] c"EVP_PKEY_SCRYPT\00", align 1
@.str.26 = private unnamed_addr constant [9 x i8] c"password\00", align 1
@.str.27 = private unnamed_addr constant [27 x i8] c"EVP_PKEY_CTX_set1_pbe_pass\00", align 1
@.str.28 = private unnamed_addr constant [5 x i8] c"NaCl\00", align 1
@.str.29 = private unnamed_addr constant [30 x i8] c"EVP_PKEY_CTX_set1_scrypt_salt\00", align 1
@.str.30 = private unnamed_addr constant [26 x i8] c"EVP_PKEY_CTX_set_scrypt_N\00", align 1
@.str.31 = private unnamed_addr constant [26 x i8] c"EVP_PKEY_CTX_set_scrypt_r\00", align 1
@.str.32 = private unnamed_addr constant [26 x i8] c"EVP_PKEY_CTX_set_scrypt_p\00", align 1
@.str.33 = private unnamed_addr constant [30 x i8] c"EVP_PKEY_CTX_set_maxmem_bytes\00", align 1
@.str.34 = private unnamed_addr constant [35 x i8] c"EVP_PKEY_derive should have failed\00", align 1
@__const.test_kdf_scrypt.expected = private unnamed_addr constant [64 x i8] c"\FD\BA\BE\1C\9D4r\00xV\E7\19\0D\01\E9\FE|j\D7\CB\C8#x0\E7svcK71b.\AF0\D9.\22\A3\88o\F1\09'\9D\980\DA\C7'\AF\B9J\83\EEm\83`\CB\DF\A2\CC\06@", align 16

; Function Attrs: nounwind uwtable
define internal i32 @test_kdf_scrypt() #0 {
  %1 = alloca i32, align 4
  %2 = alloca i32, align 4
  %3 = alloca ptr, align 8
  %4 = alloca [64 x i8], align 16
  %5 = alloca i64, align 8
  %6 = alloca [64 x i8], align 16
  %7 = alloca i32, align 4
  call void @llvm.lifetime.start.p0(i64 4, ptr %2) #4
  store i32 0, ptr %2, align 4, !tbaa !4
  call void @llvm.lifetime.start.p0(i64 8, ptr %3) #4
  call void @llvm.lifetime.start.p0(i64 64, ptr %4) #4
  call void @llvm.lifetime.start.p0(i64 8, ptr %5) #4
  store i64 64, ptr %5, align 8, !tbaa !8
  %8 = call ptr @EVP_PKEY_CTX_new_id(i32 noundef 973, ptr noundef null)
  store ptr %8, ptr %3, align 8, !tbaa !10
  %9 = icmp eq ptr %8, null
  br i1 %9, label %10, label %11

10:                                               ; preds = %0
  call void (ptr, i32, ptr, ...) @test_error(ptr noundef @.str.3, i32 noundef 156, ptr noundef @.str.25)
  br label %73

11:                                               ; preds = %0
  %12 = load ptr, ptr %3, align 8, !tbaa !10
  %13 = call i32 @EVP_PKEY_derive_init(ptr noundef %12)
  %14 = icmp sle i32 %13, 0
  br i1 %14, label %15, label %16

15:                                               ; preds = %11
  call void (ptr, i32, ptr, ...) @test_error(ptr noundef @.str.3, i32 noundef 160, ptr noundef @.str.5)
  br label %73

16:                                               ; preds = %11
  %17 = load ptr, ptr %3, align 8, !tbaa !10
  %18 = call i32 @EVP_PKEY_CTX_set1_pbe_pass(ptr noundef %17, ptr noundef @.str.26, i32 noundef 8)
  %19 = icmp sle i32 %18, 0
  br i1 %19, label %20, label %21

20:                                               ; preds = %16
  call void (ptr, i32, ptr, ...) @test_error(ptr noundef @.str.3, i32 noundef 164, ptr noundef @.str.27)
  br label %73

21:                                               ; preds = %16
  %22 = load ptr, ptr %3, align 8, !tbaa !10
  %23 = call i32 @EVP_PKEY_CTX_set1_scrypt_salt(ptr noundef %22, ptr noundef @.str.28, i32 noundef 4)
  %24 = icmp sle i32 %23, 0
  br i1 %24, label %25, label %26

25:                                               ; preds = %21
  call void (ptr, i32, ptr, ...) @test_error(ptr noundef @.str.3, i32 noundef 168, ptr noundef @.str.29)
  br label %73

26:                                               ; preds = %21
  %27 = load ptr, ptr %3, align 8, !tbaa !10
  %28 = call i32 @EVP_PKEY_CTX_set_scrypt_N(ptr noundef %27, i64 noundef 1024)
  %29 = icmp sle i32 %28, 0
  br i1 %29, label %30, label %31

30:                                               ; preds = %26
  call void (ptr, i32, ptr, ...) @test_error(ptr noundef @.str.3, i32 noundef 172, ptr noundef @.str.30)
  br label %73

31:                                               ; preds = %26
  %32 = load ptr, ptr %3, align 8, !tbaa !10
  %33 = call i32 @EVP_PKEY_CTX_set_scrypt_r(ptr noundef %32, i64 noundef 8)
  %34 = icmp sle i32 %33, 0
  br i1 %34, label %35, label %36

35:                                               ; preds = %31
  call void (ptr, i32, ptr, ...) @test_error(ptr noundef @.str.3, i32 noundef 176, ptr noundef @.str.31)
  br label %73

36:                                               ; preds = %31
  %37 = load ptr, ptr %3, align 8, !tbaa !10
  %38 = call i32 @EVP_PKEY_CTX_set_scrypt_p(ptr noundef %37, i64 noundef 16)
  %39 = icmp sle i32 %38, 0
  br i1 %39, label %40, label %41

40:                                               ; preds = %36
  call void (ptr, i32, ptr, ...) @test_error(ptr noundef @.str.3, i32 noundef 180, ptr noundef @.str.32)
  br label %73

41:                                               ; preds = %36
  %42 = load ptr, ptr %3, align 8, !tbaa !10
  %43 = call i32 @EVP_PKEY_CTX_set_scrypt_maxmem_bytes(ptr noundef %42, i64 noundef 16)
  %44 = icmp sle i32 %43, 0
  br i1 %44, label %45, label %46

45:                                               ; preds = %41
  call void (ptr, i32, ptr, ...) @test_error(ptr noundef @.str.3, i32 noundef 184, ptr noundef @.str.33)
  br label %73

46:                                               ; preds = %41
  %47 = load ptr, ptr %3, align 8, !tbaa !10
  %48 = getelementptr inbounds [64 x i8], ptr %4, i64 0, i64 0
  %49 = call i32 @EVP_PKEY_derive(ptr noundef %47, ptr noundef %48, ptr noundef %5)
  %50 = icmp sgt i32 %49, 0
  br i1 %50, label %51, label %52

51:                                               ; preds = %46
  call void (ptr, i32, ptr, ...) @test_error(ptr noundef @.str.3, i32 noundef 188, ptr noundef @.str.34)
  br label %73

52:                                               ; preds = %46
  %53 = load ptr, ptr %3, align 8, !tbaa !10
  %54 = call i32 @EVP_PKEY_CTX_set_scrypt_maxmem_bytes(ptr noundef %53, i64 noundef 10485760)
  %55 = icmp sle i32 %54, 0
  br i1 %55, label %56, label %57

56:                                               ; preds = %52
  call void (ptr, i32, ptr, ...) @test_error(ptr noundef @.str.3, i32 noundef 192, ptr noundef @.str.33)
  br label %73

57:                                               ; preds = %52
  %58 = load ptr, ptr %3, align 8, !tbaa !10
  %59 = getelementptr inbounds [64 x i8], ptr %4, i64 0, i64 0
  %60 = call i32 @EVP_PKEY_derive(ptr noundef %58, ptr noundef %59, ptr noundef %5)
  %61 = icmp sle i32 %60, 0
  br i1 %61, label %62, label %63

62:                                               ; preds = %57
  call void (ptr, i32, ptr, ...) @test_error(ptr noundef @.str.3, i32 noundef 196, ptr noundef @.str.13)
  br label %73

63:                                               ; preds = %57
  call void @llvm.lifetime.start.p0(i64 64, ptr %6) #4
  call void @llvm.memcpy.p0.p0.i64(ptr align 16 %6, ptr align 16 @__const.test_kdf_scrypt.expected, i64 64, i1 false)
  %64 = getelementptr inbounds [64 x i8], ptr %4, i64 0, i64 0
  %65 = getelementptr inbounds [64 x i8], ptr %6, i64 0, i64 0
  %66 = call i32 @test_mem_eq(ptr noundef @.str.3, i32 noundef 211, ptr noundef @.str.14, ptr noundef @.str.15, ptr noundef %64, i64 noundef 64, ptr noundef %65, i64 noundef 64)
  %67 = icmp ne i32 %66, 0
  br i1 %67, label %69, label %68

68:                                               ; preds = %63
  store i32 2, ptr %7, align 4
  br label %70

69:                                               ; preds = %63
  store i32 0, ptr %7, align 4
  br label %70

70:                                               ; preds = %68, %69
  call void @llvm.lifetime.end.p0(i64 64, ptr %6) #4
  %71 = load i32, ptr %7, align 4
  switch i32 %71, label %76 [
    i32 0, label %72
    i32 2, label %73
  ]

72:                                               ; preds = %70
  store i32 1, ptr %2, align 4, !tbaa !4
  br label %73

73:                                               ; preds = %72, %70, %62, %56, %51, %45, %40, %35, %30, %25, %20, %15, %10
  %74 = load ptr, ptr %3, align 8, !tbaa !10
  call void @EVP_PKEY_CTX_free(ptr noundef %74)
  %75 = load i32, ptr %2, align 4, !tbaa !4
  store i32 %75, ptr %1, align 4
  store i32 1, ptr %7, align 4
  br label %76

76:                                               ; preds = %73, %70
  call void @llvm.lifetime.end.p0(i64 8, ptr %5) #4
  call void @llvm.lifetime.end.p0(i64 64, ptr %4) #4
  call void @llvm.lifetime.end.p0(i64 8, ptr %3) #4
  call void @llvm.lifetime.end.p0(i64 4, ptr %2) #4
  %77 = load i32, ptr %1, align 4
  ret i32 %77
}