; Function Attrs: nounwind uwtable
define internal range(i32 0, 2) i32 @test_kdf_scrypt() #0 {
  %1 = alloca [64 x i8], align 16
  %2 = alloca i64, align 8
  %3 = alloca [64 x i8], align 16
  call void @llvm.lifetime.start.p0(i64 64, ptr nonnull %1) #4
  call void @llvm.lifetime.start.p0(i64 8, ptr nonnull %2) #4
  store i64 64, ptr %2, align 8, !tbaa !4
  %4 = tail call ptr @EVP_PKEY_CTX_new_id(i32 noundef 973, ptr noundef null) #4
  %5 = icmp eq ptr %4, null
  br i1 %5, label %6, label %7

6:                                                ; preds = %0
  tail call void (ptr, i32, ptr, ...) @test_error(ptr noundef nonnull @.str.3, i32 noundef 156, ptr noundef nonnull @.str.25) #4
  br label %49

7:                                                ; preds = %0
  %8 = tail call i32 @EVP_PKEY_derive_init(ptr noundef nonnull %4) #4
  %9 = icmp slt i32 %8, 1
  br i1 %9, label %10, label %11

10:                                               ; preds = %7
  tail call void (ptr, i32, ptr, ...) @test_error(ptr noundef nonnull @.str.3, i32 noundef 160, ptr noundef nonnull @.str.5) #4
  br label %49

11:                                               ; preds = %7
  %12 = tail call i32 @EVP_PKEY_CTX_set1_pbe_pass(ptr noundef nonnull %4, ptr noundef nonnull @.str.26, i32 noundef 8) #4
  %13 = icmp slt i32 %12, 1
  br i1 %13, label %14, label %15

14:                                               ; preds = %11
  tail call void (ptr, i32, ptr, ...) @test_error(ptr noundef nonnull @.str.3, i32 noundef 164, ptr noundef nonnull @.str.27) #4
  br label %49

15:                                               ; preds = %11
  %16 = tail call i32 @EVP_PKEY_CTX_set1_scrypt_salt(ptr noundef nonnull %4, ptr noundef nonnull @.str.28, i32 noundef 4) #4
  %17 = icmp slt i32 %16, 1
  br i1 %17, label %18, label %19

18:                                               ; preds = %15
  tail call void (ptr, i32, ptr, ...) @test_error(ptr noundef nonnull @.str.3, i32 noundef 168, ptr noundef nonnull @.str.29) #4
  br label %49

19:                                               ; preds = %15
  %20 = tail call i32 @EVP_PKEY_CTX_set_scrypt_N(ptr noundef nonnull %4, i64 noundef 1024) #4
  %21 = icmp slt i32 %20, 1
  br i1 %21, label %22, label %23

22:                                               ; preds = %19
  tail call void (ptr, i32, ptr, ...) @test_error(ptr noundef nonnull @.str.3, i32 noundef 172, ptr noundef nonnull @.str.30) #4
  br label %49

23:                                               ; preds = %19
  %24 = tail call i32 @EVP_PKEY_CTX_set_scrypt_r(ptr noundef nonnull %4, i64 noundef 8) #4
  %25 = icmp slt i32 %24, 1
  br i1 %25, label %26, label %27

26:                                               ; preds = %23
  tail call void (ptr, i32, ptr, ...) @test_error(ptr noundef nonnull @.str.3, i32 noundef 176, ptr noundef nonnull @.str.31) #4
  br label %49

27:                                               ; preds = %23
  %28 = tail call i32 @EVP_PKEY_CTX_set_scrypt_p(ptr noundef nonnull %4, i64 noundef 16) #4
  %29 = icmp slt i32 %28, 1
  br i1 %29, label %30, label %31

30:                                               ; preds = %27
  tail call void (ptr, i32, ptr, ...) @test_error(ptr noundef nonnull @.str.3, i32 noundef 180, ptr noundef nonnull @.str.32) #4
  br label %49

31:                                               ; preds = %27
  %32 = tail call i32 @EVP_PKEY_CTX_set_scrypt_maxmem_bytes(ptr noundef nonnull %4, i64 noundef 16) #4
  %33 = icmp slt i32 %32, 1
  br i1 %33, label %34, label %35

34:                                               ; preds = %31
  tail call void (ptr, i32, ptr, ...) @test_error(ptr noundef nonnull @.str.3, i32 noundef 184, ptr noundef nonnull @.str.33) #4
  br label %49

35:                                               ; preds = %31
  %36 = call i32 @EVP_PKEY_derive(ptr noundef nonnull %4, ptr noundef nonnull %1, ptr noundef nonnull %2) #4
  %37 = icmp sgt i32 %36, 0
  br i1 %37, label %38, label %39

38:                                               ; preds = %35
  call void (ptr, i32, ptr, ...) @test_error(ptr noundef nonnull @.str.3, i32 noundef 188, ptr noundef nonnull @.str.34) #4
  br label %49

39:                                               ; preds = %35
  %40 = call i32 @EVP_PKEY_CTX_set_scrypt_maxmem_bytes(ptr noundef nonnull %4, i64 noundef 10485760) #4
  %41 = icmp slt i32 %40, 1
  br i1 %41, label %42, label %43

42:                                               ; preds = %39
  call void (ptr, i32, ptr, ...) @test_error(ptr noundef nonnull @.str.3, i32 noundef 192, ptr noundef nonnull @.str.33) #4
  br label %49

43:                                               ; preds = %39
  %44 = call i32 @EVP_PKEY_derive(ptr noundef nonnull %4, ptr noundef nonnull %1, ptr noundef nonnull %2) #4
  %45 = icmp slt i32 %44, 1
  br i1 %45, label %46, label %47

46:                                               ; preds = %43
  call void (ptr, i32, ptr, ...) @test_error(ptr noundef nonnull @.str.3, i32 noundef 196, ptr noundef nonnull @.str.13) #4
  br label %49

47:                                               ; preds = %43
  call void @llvm.lifetime.start.p0(i64 64, ptr nonnull %3) #4
  call void @llvm.memcpy.p0.p0.i64(ptr noundef nonnull align 16 dereferenceable(64) %3, ptr noundef nonnull align 16 dereferenceable(64) @__const.test_kdf_scrypt.expected, i64 64, i1 false)
  %48 = call i32 @test_mem_eq(ptr noundef nonnull @.str.3, i32 noundef 211, ptr noundef nonnull @.str.14, ptr noundef nonnull @.str.15, ptr noundef nonnull %1, i64 noundef 64, ptr noundef nonnull %3, i64 noundef 64) #4
  %.not = icmp ne i32 %48, 0
  call void @llvm.lifetime.end.p0(i64 64, ptr nonnull %3) #4
  %spec.select = zext i1 %.not to i32
  br label %49

49:                                               ; preds = %47, %46, %42, %38, %34, %30, %26, %22, %18, %14, %10, %6
  %.014 = phi i32 [ 0, %6 ], [ 0, %10 ], [ 0, %14 ], [ 0, %18 ], [ 0, %22 ], [ 0, %26 ], [ 0, %30 ], [ 0, %34 ], [ 0, %38 ], [ 0, %42 ], [ 0, %46 ], [ %spec.select, %47 ]
  call void @EVP_PKEY_CTX_free(ptr noundef %4) #4
  call void @llvm.lifetime.end.p0(i64 8, ptr nonnull %2) #4
  call void @llvm.lifetime.end.p0(i64 64, ptr nonnull %1) #4
  ret i32 %.014
}